target datalayout = "e-m:e-p270:32:32-p271:32:32-p272:64:64-i64:64-i128:128-f80:128-n8:16:32:64-S128"
target triple = "x86_64-pc-linux-gnu"

%struct.bbsink_state = type { ptr, i32, i64, i64, i8, i64, i32 }
%struct.bbsink = type { ptr, ptr, i64, ptr, ptr }
%struct.PageHeaderData = type { %struct.PageXLogRecPtr, i16, i16, i16, i16, i16, i16, i32, [0 x %struct.ItemIdData] }
%struct.PageXLogRecPtr = type { i32, i32 }
%struct.ItemIdData = type { i32 }

@.str.1 = private unnamed_addr constant [13 x i8] c"basebackup.c\00", align 1
@.str.103 = private unnamed_addr constant [83 x i8] c"checksum verification failed in file \22%s\22, block %u: calculated %X but expected %X\00", align 1
@__func__.read_file_data_into_buffer = private unnamed_addr constant [27 x i8] c"read_file_data_into_buffer\00", align 1
@.str.104 = private unnamed_addr constant [73 x i8] c"further checksum verification failures in file \22%s\22 will not be reported\00", align 1

; Function Attrs: inlinehint nounwind uwtable
define internal i64 @PageXLogRecPtrGet(i64 %0) #4 {
  %2 = alloca %struct.PageXLogRecPtr, align 4
  store i64 %0, ptr %2, align 4
  %3 = getelementptr inbounds nuw %struct.PageXLogRecPtr, ptr %2, i32 0, i32 0
  %4 = load i32, ptr %3, align 4
  %5 = zext i32 %4 to i64
  %6 = shl i64 %5, 32
  %7 = getelementptr inbounds nuw %struct.PageXLogRecPtr, ptr %2, i32 0, i32 1
  %8 = load i32, ptr %7, align 4
  %9 = zext i32 %8 to i64
  %10 = or i64 %6, %9
  ret i64 %10
}

; Function Attrs: inlinehint nounwind uwtable
define internal i64 @PageGetLSN(ptr noundef %0) #4 {
  %2 = alloca ptr, align 8
  store ptr %0, ptr %2, align 8
  %3 = load ptr, ptr %2, align 8
  %4 = getelementptr inbounds nuw %struct.PageHeaderData, ptr %3, i32 0, i32 0
  %5 = load i64, ptr %4, align 4
  %6 = call i64 @PageXLogRecPtrGet(i64 %5)
  ret i64 %6
}

; Function Attrs: inlinehint nounwind uwtable
define internal zeroext i1 @PageIsNew(ptr noundef %0) #4 {
  %2 = alloca ptr, align 8
  store ptr %0, ptr %2, align 8
  %3 = load ptr, ptr %2, align 8
  %4 = getelementptr inbounds nuw %struct.PageHeaderData, ptr %3, i32 0, i32 4
  %5 = load i16, ptr %4, align 2
  %6 = zext i16 %5 to i32
  %7 = icmp eq i32 %6, 0
  ret i1 %7
}

; Function Attrs: nounwind uwtable
define internal zeroext i1 @verify_page_checksum(ptr noundef %0, i64 noundef %1, i32 noundef %2, ptr noundef %3) #0 {
  %5 = alloca i1, align 1
  %6 = alloca ptr, align 8
  %7 = alloca i64, align 8
  %8 = alloca i32, align 4
  %9 = alloca ptr, align 8
  %10 = alloca ptr, align 8
  %11 = alloca i16, align 2
  %12 = alloca i32, align 4
  store ptr %0, ptr %6, align 8
  store i64 %1, ptr %7, align 8
  store i32 %2, ptr %8, align 4
  store ptr %3, ptr %9, align 8
  call void @llvm.lifetime.start.p0(i64 8, ptr %10) #13
  call void @llvm.lifetime.start.p0(i64 2, ptr %11) #13
  %13 = load ptr, ptr %6, align 8
  %14 = call zeroext i1 @PageIsNew(ptr noundef %13)
  br i1 %14, label %20, label %15

15:                                               ; preds = %4
  %16 = load ptr, ptr %6, align 8
  %17 = call i64 @PageGetLSN(ptr noundef %16)
  %18 = load i64, ptr %7, align 8
  %19 = icmp uge i64 %17, %18
  br i1 %19, label %20, label %21

20:                                               ; preds = %15, %4
  store i1 true, ptr %5, align 1
  store i32 1, ptr %12, align 4
  br label %37

21:                                               ; preds = %15
  %22 = load ptr, ptr %6, align 8
  %23 = load i32, ptr %8, align 4
  %24 = call zeroext i16 @pg_checksum_page(ptr noundef %22, i32 noundef %23)
  store i16 %24, ptr %11, align 2
  %25 = load ptr, ptr %6, align 8
  store ptr %25, ptr %10, align 8
  %26 = load ptr, ptr %10, align 8
  %27 = getelementptr inbounds nuw %struct.PageHeaderData, ptr %26, i32 0, i32 1
  %28 = load i16, ptr %27, align 4
  %29 = zext i16 %28 to i32
  %30 = load i16, ptr %11, align 2
  %31 = zext i16 %30 to i32
  %32 = icmp eq i32 %29, %31
  br i1 %32, label %33, label %34

33:                                               ; preds = %21
  store i1 true, ptr %5, align 1
  store i32 1, ptr %12, align 4
  br label %37

34:                                               ; preds = %21
  %35 = load i16, ptr %11, align 2
  %36 = load ptr, ptr %9, align 8
  store i16 %35, ptr %36, align 2
  store i1 false, ptr %5, align 1
  store i32 1, ptr %12, align 4
  br label %37

37:                                               ; preds = %34, %33, %20
  call void @llvm.lifetime.end.p0(i64 2, ptr %11) #13
  call void @llvm.lifetime.end.p0(i64 8, ptr %10) #13
  %38 = load i1, ptr %5, align 1
  ret i1 %38
}

; Function Attrs: nounwind uwtable
define internal i64 @read_file_data_into_buffer(ptr noundef %0, ptr noundef %1, i32 noundef %2, i64 noundef %3, i64 noundef %4, i32 noundef %5, i1 noundef zeroext %6, ptr noundef %7) #0 {
  %9 = alloca i64, align 8
  %10 = alloca ptr, align 8
  %11 = alloca ptr, align 8
  %12 = alloca i32, align 4
  %13 = alloca i64, align 8
  %14 = alloca i64, align 8
  %15 = alloca i32, align 4
  %16 = alloca i8, align 1
  %17 = alloca ptr, align 8
  %18 = alloca i64, align 8
  %19 = alloca i32, align 4
  %20 = alloca ptr, align 8
  %21 = alloca i32, align 4
  %22 = alloca i32, align 4
  %23 = alloca i16, align 2
  store ptr %0, ptr %10, align 8
  store ptr %1, ptr %11, align 8
  store i32 %2, ptr %12, align 4
  store i64 %3, ptr %13, align 8
  store i64 %4, ptr %14, align 8
  store i32 %5, ptr %15, align 4
  %24 = zext i1 %6 to i8
  store i8 %24, ptr %16, align 1
  store ptr %7, ptr %17, align 8
  call void @llvm.lifetime.start.p0(i64 8, ptr %18) #13
  call void @llvm.lifetime.start.p0(i64 4, ptr %19) #13
  call void @llvm.lifetime.start.p0(i64 8, ptr %20) #13
  %25 = load i32, ptr %12, align 4
  %26 = load ptr, ptr %10, align 8
  %27 = getelementptr inbounds nuw %struct.bbsink, ptr %26, i32 0, i32 1
  %28 = load ptr, ptr %27, align 8
  %29 = load ptr, ptr %10, align 8
  %30 = getelementptr inbounds nuw %struct.bbsink, ptr %29, i32 0, i32 2
  %31 = load i64, ptr %30, align 8
  %32 = load i64, ptr %14, align 8
  %33 = icmp ult i64 %31, %32
  br i1 %33, label %34, label %38

34:                                               ; preds = %8
  %35 = load ptr, ptr %10, align 8
  %36 = getelementptr inbounds nuw %struct.bbsink, ptr %35, i32 0, i32 2
  %37 = load i64, ptr %36, align 8
  br label %40

38:                                               ; preds = %8
  %39 = load i64, ptr %14, align 8
  br label %40

40:                                               ; preds = %38, %34
  %41 = phi i64 [ %37, %34 ], [ %39, %38 ]
  %42 = load i64, ptr %13, align 8
  %43 = load ptr, ptr %11, align 8
  %44 = call i64 @basebackup_read_file(i32 noundef %25, ptr noundef %28, i64 noundef %41, i64 noundef %42, ptr noundef %43, i1 noundef zeroext true)
  store i64 %44, ptr %18, align 8
  %45 = load i8, ptr %16, align 1, !range !4, !noundef !5
  %46 = trunc i8 %45 to i1
  br i1 %46, label %47, label %51

47:                                               ; preds = %40
  %48 = load i64, ptr %18, align 8
  %49 = srem i64 %48, 8192
  %50 = icmp ne i64 %49, 0
  br i1 %50, label %51, label %53

51:                                               ; preds = %47, %40
  %52 = load i64, ptr %18, align 8
  store i64 %52, ptr %9, align 8
  store i32 1, ptr %21, align 4
  br label %167

53:                                               ; preds = %47
  store i32 0, ptr %19, align 4
  br label %54

54:                                               ; preds = %162, %53
  %55 = load i32, ptr %19, align 4
  %56 = sext i32 %55 to i64
  %57 = load i64, ptr %18, align 8
  %58 = sdiv i64 %57, 8192
  %59 = icmp slt i64 %56, %58
  br i1 %59, label %60, label %165

60:                                               ; preds = %54
  call void @llvm.lifetime.start.p0(i64 4, ptr %22) #13
  call void @llvm.lifetime.start.p0(i64 2, ptr %23) #13
  %61 = load ptr, ptr %10, align 8
  %62 = getelementptr inbounds nuw %struct.bbsink, ptr %61, i32 0, i32 1
  %63 = load ptr, ptr %62, align 8
  %64 = load i32, ptr %19, align 4
  %65 = mul i32 8192, %64
  %66 = sext i32 %65 to i64
  %67 = getelementptr inbounds i8, ptr %63, i64 %66
  store ptr %67, ptr %20, align 8
  %68 = load ptr, ptr %20, align 8
  %69 = load ptr, ptr %10, align 8
  %70 = getelementptr inbounds nuw %struct.bbsink, ptr %69, i32 0, i32 4
  %71 = load ptr, ptr %70, align 8
  %72 = getelementptr inbounds nuw %struct.bbsink_state, ptr %71, i32 0, i32 5
  %73 = load i64, ptr %72, align 8
  %74 = load i32, ptr %15, align 4
  %75 = load i32, ptr %19, align 4
  %76 = add i32 %74, %75
  %77 = call zeroext i1 @verify_page_checksum(ptr noundef %68, i64 noundef %73, i32 noundef %76, ptr noundef %23)
  br i1 %77, label %78, label %79

78:                                               ; preds = %60
  store i32 4, ptr %21, align 4
  br label %159

79:                                               ; preds = %60
  %80 = load i32, ptr %12, align 4
  %81 = load ptr, ptr %10, align 8
  %82 = getelementptr inbounds nuw %struct.bbsink, ptr %81, i32 0, i32 1
  %83 = load ptr, ptr %82, align 8
  %84 = load i32, ptr %19, align 4
  %85 = mul i32 8192, %84
  %86 = sext i32 %85 to i64
  %87 = getelementptr inbounds i8, ptr %83, i64 %86
  %88 = load i64, ptr %13, align 8
  %89 = load i32, ptr %19, align 4
  %90 = mul i32 8192, %89
  %91 = sext i32 %90 to i64
  %92 = add i64 %88, %91
  %93 = load ptr, ptr %11, align 8
  %94 = call i64 @basebackup_read_file(i32 noundef %80, ptr noundef %87, i64 noundef 8192, i64 noundef %92, ptr noundef %93, i1 noundef zeroext false)
  %95 = trunc i64 %94 to i32
  store i32 %95, ptr %22, align 4
  %96 = load i32, ptr %22, align 4
  %97 = icmp eq i32 %96, 0
  br i1 %97, label %98, label %102

98:                                               ; preds = %79
  %99 = load i32, ptr %19, align 4
  %100 = mul i32 8192, %99
  %101 = sext i32 %100 to i64
  store i64 %101, ptr %18, align 8
  store i32 2, ptr %21, align 4
  br label %159

102:                                              ; preds = %79
  %103 = load ptr, ptr %20, align 8
  %104 = load ptr, ptr %10, align 8
  %105 = getelementptr inbounds nuw %struct.bbsink, ptr %104, i32 0, i32 4
  %106 = load ptr, ptr %105, align 8
  %107 = getelementptr inbounds nuw %struct.bbsink_state, ptr %106, i32 0, i32 5
  %108 = load i64, ptr %107, align 8
  %109 = load i32, ptr %15, align 4
  %110 = load i32, ptr %19, align 4
  %111 = add i32 %109, %110
  %112 = call zeroext i1 @verify_page_checksum(ptr noundef %103, i64 noundef %108, i32 noundef %111, ptr noundef %23)
  br i1 %112, label %113, label %114

113:                                              ; preds = %102
  store i32 4, ptr %21, align 4
  br label %159

114:                                              ; preds = %102
  %115 = load ptr, ptr %17, align 8
  %116 = load i32, ptr %115, align 4
  %117 = add i32 %116, 1
  store i32 %117, ptr %115, align 4
  %118 = load ptr, ptr %17, align 8
  %119 = load i32, ptr %118, align 4
  %120 = icmp sle i32 %119, 5
  br i1 %120, label %121, label %142

121:                                              ; preds = %114
  br label %122

122:                                              ; preds = %121
  br i1 false, label %123, label %125

123:                                              ; preds = %122
  %124 = call zeroext i1 @errstart_cold(i32 noundef 19, ptr noundef null) #14
  br i1 %124, label %127, label %139

125:                                              ; preds = %122
  %126 = call zeroext i1 @errstart(i32 noundef 19, ptr noundef null)
  br i1 %126, label %127, label %139

127:                                              ; preds = %125, %123
  %128 = load ptr, ptr %11, align 8
  %129 = load i32, ptr %15, align 4
  %130 = load i32, ptr %19, align 4
  %131 = add i32 %129, %130
  %132 = load i16, ptr %23, align 2
  %133 = zext i16 %132 to i32
  %134 = load ptr, ptr %20, align 8
  %135 = getelementptr inbounds nuw %struct.PageHeaderData, ptr %134, i32 0, i32 1
  %136 = load i16, ptr %135, align 4
  %137 = zext i16 %136 to i32
  %138 = call i32 (ptr, ...) @errmsg(ptr noundef @.str.103, ptr noundef %128, i32 noundef %131, i32 noundef %133, i32 noundef %137)
  call void @errfinish(ptr noundef @.str.1, i32 noundef 1923, ptr noundef @__func__.read_file_data_into_buffer)
  br label %139

139:                                              ; preds = %127, %125, %123
  br label %140

140:                                              ; preds = %139
  br label %141

141:                                              ; preds = %140
  br label %142

142:                                              ; preds = %141, %114
  %143 = load ptr, ptr %17, align 8
  %144 = load i32, ptr %143, align 4
  %145 = icmp eq i32 %144, 5
  br i1 %145, label %146, label %158

146:                                              ; preds = %142
  br label %147

147:                                              ; preds = %146
  br i1 false, label %148, label %150

148:                                              ; preds = %147
  %149 = call zeroext i1 @errstart_cold(i32 noundef 19, ptr noundef null) #14
  br i1 %149, label %152, label %155

150:                                              ; preds = %147
  %151 = call zeroext i1 @errstart(i32 noundef 19, ptr noundef null)
  br i1 %151, label %152, label %155

152:                                              ; preds = %150, %148
  %153 = load ptr, ptr %11, align 8
  %154 = call i32 (ptr, ...) @errmsg(ptr noundef @.str.104, ptr noundef %153)
  call void @errfinish(ptr noundef @.str.1, i32 noundef 1928, ptr noundef @__func__.read_file_data_into_buffer)
  br label %155

155:                                              ; preds = %152, %150, %148
  br label %156

156:                                              ; preds = %155
  br label %157

157:                                              ; preds = %156
  br label %158

158:                                              ; preds = %157, %142
  store i32 0, ptr %21, align 4
  br label %159

159:                                              ; preds = %158, %113, %98, %78
  call void @llvm.lifetime.end.p0(i64 2, ptr %23) #13
  call void @llvm.lifetime.end.p0(i64 4, ptr %22) #13
  %160 = load i32, ptr %21, align 4
  switch i32 %160, label %169 [
    i32 0, label %161
    i32 4, label %162
    i32 2, label %165
  ]

161:                                              ; preds = %159
  br label %162

162:                                              ; preds = %161, %159
  %163 = load i32, ptr %19, align 4
  %164 = add i32 %163, 1
  store i32 %164, ptr %19, align 4
  br label %54, !llvm.loop !25

165:                                              ; preds = %159, %54
  %166 = load i64, ptr %18, align 8
  store i64 %166, ptr %9, align 8
  store i32 1, ptr %21, align 4
  br label %167

167:                                              ; preds = %165, %51
  call void @llvm.lifetime.end.p0(i64 8, ptr %20) #13
  call void @llvm.lifetime.end.p0(i64 4, ptr %19) #13
  call void @llvm.lifetime.end.p0(i64 8, ptr %18) #13
  %168 = load i64, ptr %9, align 8
  ret i64 %168

169:                                              ; preds = %159
  unreachable
}