; Function Attrs: nounwind uwtable
define internal fastcc range(i64 -2147483648, -9223372036854775808) i64 @read_file_data_into_buffer(ptr noundef readonly captures(none) %0, ptr noundef %1, i32 noundef range(i32 0, -2147483648) %2, i64 noundef %3, i64 noundef %4, i32 noundef %5, i1 noundef zeroext %6, ptr noundef nonnull captures(none) %7) unnamed_addr #0 {
  %9 = getelementptr inbounds nuw i8, ptr %0, i64 8
  %10 = load ptr, ptr %9, align 8
  %11 = getelementptr inbounds nuw i8, ptr %0, i64 16
  %12 = load i64, ptr %11, align 8
  %. = tail call i64 @llvm.umin.i64(i64 %12, i64 %4)
  %13 = load ptr, ptr @my_wait_event_info, align 8
  store volatile i32 167772160, ptr %13, align 4
  %14 = tail call i64 @pread(i32 noundef range(i32 0, -2147483648) %2, ptr noundef %10, i64 noundef %., i64 noundef %3) #19
  %15 = load ptr, ptr @my_wait_event_info, align 8
  store volatile i32 0, ptr %15, align 4
  %16 = icmp slt i64 %14, 0
  br i1 %16, label %17, label %basebackup_read_file.exit

17:                                               ; preds = %8
  %18 = tail call zeroext i1 @errstart_cold(i32 noundef 21, ptr noundef null) #20
  tail call void @llvm.assume(i1 %18)
  %19 = tail call i32 @errcode_for_file_access() #19
  %20 = tail call i32 (ptr, ...) @errmsg(ptr noundef nonnull @.str.111, ptr noundef %1) #19
  tail call void @errfinish(ptr noundef nonnull @.str.1, i32 noundef 2127, ptr noundef nonnull @__func__.basebackup_read_file) #19
  unreachable

basebackup_read_file.exit:                        ; preds = %8
  %21 = and i64 %14, 8191
  %.not = icmp eq i64 %21, 0
  %or.cond = and i1 %6, %.not
  br i1 %or.cond, label %.preheader, label %.loopexit

.preheader:                                       ; preds = %basebackup_read_file.exit
  %22 = lshr exact i64 %14, 13
  %.not69 = icmp eq i64 %14, 0
  br i1 %.not69, label %.loopexit, label %.lr.ph

.lr.ph:                                           ; preds = %.preheader
  %23 = getelementptr inbounds nuw i8, ptr %0, i64 32
  br label %24

24:                                               ; preds = %.lr.ph, %verify_page_checksum.exit.thread
  %.04467 = phi i32 [ 0, %.lr.ph ], [ %75, %verify_page_checksum.exit.thread ]
  %25 = load ptr, ptr %9, align 8
  %26 = shl i32 %.04467, 13
  %27 = sext i32 %26 to i64
  %28 = getelementptr inbounds i8, ptr %25, i64 %27
  %29 = add i32 %.04467, %5
  %30 = getelementptr i8, ptr %28, i64 14
  %.val.i = load i16, ptr %30, align 2
  %31 = icmp eq i16 %.val.i, 0
  br i1 %31, label %verify_page_checksum.exit.thread, label %32

32:                                               ; preds = %24
  %33 = load ptr, ptr %23, align 8
  %34 = getelementptr inbounds nuw i8, ptr %33, i64 40
  %35 = load i64, ptr %34, align 8
  %.val10.i = load i64, ptr %28, align 4
  %36 = tail call i64 @llvm.fshl.i64(i64 %.val10.i, i64 %.val10.i, i64 32)
  %.not.i47 = icmp ult i64 %36, %35
  br i1 %.not.i47, label %37, label %verify_page_checksum.exit.thread

37:                                               ; preds = %32
  %38 = tail call zeroext i16 @pg_checksum_page(ptr noundef nonnull %28, i32 noundef %29) #19
  %39 = getelementptr inbounds nuw i8, ptr %28, i64 8
  %40 = load i16, ptr %39, align 4
  %41 = icmp eq i16 %40, %38
  br i1 %41, label %verify_page_checksum.exit.thread, label %verify_page_checksum.exit

verify_page_checksum.exit:                        ; preds = %37
  %42 = load ptr, ptr %9, align 8
  %43 = getelementptr inbounds i8, ptr %42, i64 %27
  %44 = add i64 %3, %27
  %45 = tail call fastcc i64 @basebackup_read_file(i32 noundef %2, ptr noundef %43, i64 noundef 8192, i64 noundef %44, ptr noundef %1, i1 noundef zeroext false)
  %46 = and i64 %45, 4294967295
  %47 = icmp eq i64 %46, 0
  br i1 %47, label %.loopexit, label %48

48:                                               ; preds = %verify_page_checksum.exit
  %.val.i48 = load i16, ptr %30, align 2
  %49 = icmp eq i16 %.val.i48, 0
  br i1 %49, label %verify_page_checksum.exit.thread, label %50

50:                                               ; preds = %48
  %51 = load ptr, ptr %23, align 8
  %52 = getelementptr inbounds nuw i8, ptr %51, i64 40
  %53 = load i64, ptr %52, align 8
  %.val10.i49 = load i64, ptr %28, align 4
  %54 = tail call i64 @llvm.fshl.i64(i64 %.val10.i49, i64 %.val10.i49, i64 32)
  %.not.i50 = icmp ult i64 %54, %53
  br i1 %.not.i50, label %55, label %verify_page_checksum.exit.thread

55:                                               ; preds = %50
  %56 = tail call zeroext i16 @pg_checksum_page(ptr noundef nonnull %28, i32 noundef %29) #19
  %57 = load i16, ptr %39, align 4
  %58 = icmp eq i16 %57, %56
  br i1 %58, label %verify_page_checksum.exit.thread, label %verify_page_checksum.exit52

verify_page_checksum.exit52:                      ; preds = %55
  %59 = load i32, ptr %7, align 4
  %60 = add i32 %59, 1
  store i32 %60, ptr %7, align 4
  %61 = icmp slt i32 %60, 6
  br i1 %61, label %62, label %verify_page_checksum.exit.thread

62:                                               ; preds = %verify_page_checksum.exit52
  %63 = tail call zeroext i1 @errstart(i32 noundef 19, ptr noundef null) #19
  br i1 %63, label %64, label %69

64:                                               ; preds = %62
  %65 = zext i16 %56 to i32
  %66 = load i16, ptr %39, align 4
  %67 = zext i16 %66 to i32
  %68 = tail call i32 (ptr, ...) @errmsg(ptr noundef nonnull @.str.103, ptr noundef %1, i32 noundef %29, i32 noundef %65, i32 noundef %67) #19
  tail call void @errfinish(ptr noundef nonnull @.str.1, i32 noundef 1923, ptr noundef nonnull @__func__.read_file_data_into_buffer) #19
  br label %69

69:                                               ; preds = %62, %64
  %.pr = load i32, ptr %7, align 4
  %70 = icmp eq i32 %.pr, 5
  br i1 %70, label %71, label %verify_page_checksum.exit.thread

71:                                               ; preds = %69
  %72 = tail call zeroext i1 @errstart(i32 noundef 19, ptr noundef null) #19
  br i1 %72, label %73, label %verify_page_checksum.exit.thread

73:                                               ; preds = %71
  %74 = tail call i32 (ptr, ...) @errmsg(ptr noundef nonnull @.str.104, ptr noundef %1) #19
  tail call void @errfinish(ptr noundef nonnull @.str.1, i32 noundef 1928, ptr noundef nonnull @__func__.read_file_data_into_buffer) #19
  br label %verify_page_checksum.exit.thread

verify_page_checksum.exit.thread:                 ; preds = %verify_page_checksum.exit52, %55, %48, %50, %37, %24, %32, %71, %73, %69
  %75 = add i32 %.04467, 1
  %76 = sext i32 %75 to i64
  %77 = icmp sgt i64 %22, %76
  br i1 %77, label %24, label %.loopexit, !llvm.loop !17

.loopexit:                                        ; preds = %verify_page_checksum.exit.thread, %verify_page_checksum.exit, %.preheader, %basebackup_read_file.exit
  %.0 = phi i64 [ %14, %basebackup_read_file.exit ], [ 0, %.preheader ], [ %14, %verify_page_checksum.exit.thread ], [ %27, %verify_page_checksum.exit ]
  ret i64 %.0
}